; Function Attrs: mustprogress uwtable
define void @_ZN32pxrInternal_v0_24__pxrReserved__25SdfLayerStateDelegateBase22SetFieldDictValueByKeyERKNS_7SdfPathERKNS_7TfTokenES6_RKNS_7VtValueEPS7_(ptr noundef nonnull align 8 dereferenceable(40) %0, ptr noundef nonnull align 4 dereferenceable(8) %1, ptr noundef nonnull align 8 dereferenceable(8) %2, ptr noundef nonnull align 8 dereferenceable(8) %3, ptr noundef nonnull align 8 dereferenceable(16) %4, ptr noundef %5) local_unnamed_addr #5 align 2 {
  %7 = alloca %"class.pxrInternal_v0_24__pxrReserved__::TfCallContext", align 8
  %8 = load ptr, ptr %0, align 8
  %9 = getelementptr inbounds i8, ptr %8, i64 64
  %10 = load ptr, ptr %9, align 8
  tail call void %10(ptr noundef nonnull align 8 dereferenceable(40) %0, ptr noundef nonnull align 4 dereferenceable(8) %1, ptr noundef nonnull align 8 dereferenceable(8) %2, ptr noundef nonnull align 8 dereferenceable(8) %3, ptr noundef nonnull align 8 dereferenceable(16) %4)
  call void @llvm.lifetime.start.p0(i64 40, ptr nonnull %7)
  %11 = getelementptr inbounds i8, ptr %0, i64 32
  %12 = load ptr, ptr %11, align 8
  %.not.i.i.i.i.i = icmp eq ptr %12, null
  br i1 %.not.i.i.i.i.i, label %_ZNK32pxrInternal_v0_24__pxrReserved__15TfWeakPtrFacadeINS_9TfWeakPtrENS_8SdfLayerEE13_FetchPointerEv.exit.thread.i, label %_ZNK32pxrInternal_v0_24__pxrReserved__8TfRefPtrINS_10Tf_RemnantEEptEv.exit.i.i.i.i

_ZNK32pxrInternal_v0_24__pxrReserved__8TfRefPtrINS_10Tf_RemnantEEptEv.exit.i.i.i.i: ; preds = %6
  %13 = getelementptr inbounds nuw i8, ptr %0, i64 24
  %14 = getelementptr inbounds nuw i8, ptr %12, i64 14
  %15 = load i8, ptr %14, align 2
  %16 = trunc i8 %15 to i1
  %17 = load ptr, ptr %13, align 8
  %.not.i = icmp ne ptr %17, null
  %or.cond.not.i = select i1 %16, i1 %.not.i, i1 false
  br i1 %or.cond.not.i, label %_ZNK32pxrInternal_v0_24__pxrReserved__15TfWeakPtrFacadeINS_9TfWeakPtrENS_8SdfLayerEEptEv.exit, label %_ZNK32pxrInternal_v0_24__pxrReserved__15TfWeakPtrFacadeINS_9TfWeakPtrENS_8SdfLayerEE13_FetchPointerEv.exit.thread.i

_ZNK32pxrInternal_v0_24__pxrReserved__15TfWeakPtrFacadeINS_9TfWeakPtrENS_8SdfLayerEE13_FetchPointerEv.exit.thread.i: ; preds = %_ZNK32pxrInternal_v0_24__pxrReserved__8TfRefPtrINS_10Tf_RemnantEEptEv.exit.i.i.i.i, %6
  store ptr @.str, ptr %7, align 8
  %18 = getelementptr inbounds nuw i8, ptr %7, i64 8
  store ptr @__func__._ZNK32pxrInternal_v0_24__pxrReserved__15TfWeakPtrFacadeINS_9TfWeakPtrENS_8SdfLayerEEptEv, ptr %18, align 8
  %19 = getelementptr inbounds nuw i8, ptr %7, i64 16
  store i64 198, ptr %19, align 8
  %20 = getelementptr inbounds nuw i8, ptr %7, i64 24
  store ptr @__PRETTY_FUNCTION__._ZNK32pxrInternal_v0_24__pxrReserved__15TfWeakPtrFacadeINS_9TfWeakPtrENS_8SdfLayerEEptEv, ptr %20, align 8
  %21 = getelementptr inbounds nuw i8, ptr %7, i64 32
  store i8 0, ptr %21, align 8
  call void @_ZN32pxrInternal_v0_24__pxrReserved__40Tf_PostNullSmartPtrDereferenceFatalErrorERKNS_13TfCallContextEPKc(ptr noundef nonnull align 8 dereferenceable(33) %7, ptr noundef nonnull @_ZTSN32pxrInternal_v0_24__pxrReserved__9TfWeakPtrINS_8SdfLayerEEE) #19
  unreachable

_ZNK32pxrInternal_v0_24__pxrReserved__15TfWeakPtrFacadeINS_9TfWeakPtrENS_8SdfLayerEEptEv.exit: ; preds = %_ZNK32pxrInternal_v0_24__pxrReserved__8TfRefPtrINS_10Tf_RemnantEEptEv.exit.i.i.i.i
  call void @llvm.lifetime.end.p0(i64 40, ptr nonnull %7)
  tail call void @_ZN32pxrInternal_v0_24__pxrReserved__8SdfLayer27_PrimSetFieldDictValueByKeyINS_7VtValueEEEvRKNS_7SdfPathERKNS_7TfTokenES8_RKT_PS2_b(ptr noundef nonnull align 8 dereferenceable(557) %17, ptr noundef nonnull align 4 dereferenceable(8) %1, ptr noundef nonnull align 8 dereferenceable(8) %2, ptr noundef nonnull align 8 dereferenceable(8) %3, ptr noundef nonnull align 8 dereferenceable(16) %4, ptr noundef %5, i1 noundef zeroext false)
  ret void
}